target datalayout = "e-m:e-p270:32:32-p271:32:32-p272:64:64-i64:64-i128:128-f80:128-n8:16:32:64-S128"
target triple = "x86_64-pc-linux-gnu"

%"class.zmq::udp_engine_t" = type <{ %"class.zmq::io_object_t", %"struct.zmq::i_engine", %"struct.zmq::endpoint_uri_pair_t", i8, [3 x i8], i32, ptr, ptr, ptr, %"struct.zmq::options_t", %struct.sockaddr_in, ptr, i32, [8192 x i8], [8192 x i8], i8, i8, [2 x i8] }>
%"class.zmq::io_object_t" = type { %"struct.zmq::i_poll_events", ptr }
%"struct.zmq::i_poll_events" = type { ptr }
%"struct.zmq::i_engine" = type { ptr }
%"struct.zmq::endpoint_uri_pair_t" = type <{ %"class.std::__cxx11::basic_string", %"class.std::__cxx11::basic_string", i32, [4 x i8] }>
%"class.std::__cxx11::basic_string" = type { %"struct.std::__cxx11::basic_string<char>::_Alloc_hider", i64, %union.anon }
%"struct.std::__cxx11::basic_string<char>::_Alloc_hider" = type { ptr }
%union.anon = type { i64, [8 x i8] }
%"struct.zmq::options_t" = type { i32, i32, i64, i8, [256 x i8], i32, i32, i32, i32, i32, i32, i32, i32, i8, %"struct.zmq::atomic_value_t", i32, i32, i32, i32, i32, i32, i64, i32, i32, i8, i32, i8, i8, i8, i8, i8, %"class.std::__cxx11::basic_string", %"class.std::__cxx11::basic_string", %"class.std::__cxx11::basic_string", i32, i32, i32, i32, %"class.std::vector", %"class.std::set", %"class.std::set", %"class.std::set.6", i32, i32, %"class.std::__cxx11::basic_string", %"class.std::__cxx11::basic_string", %"class.std::__cxx11::basic_string", [32 x i8], [32 x i8], [32 x i8], %"class.std::__cxx11::basic_string", %"class.std::__cxx11::basic_string", i32, i32, i8, i32, i8, i32, i8, i16, i32, i32, i32, %"class.std::__cxx11::basic_string", i8, i8, i8, i32, i32, i8, i32, %"class.std::map", i32, %"class.std::__cxx11::basic_string", %"class.std::__cxx11::basic_string", %"class.std::__cxx11::basic_string", %"class.std::__cxx11::basic_string", i8, %"class.std::vector.17", i8, %"class.std::vector.17", i8, %"class.std::vector.17", i8, i32, i8, i32, i32, i32, i32, i32, i8, i32 }
%"struct.zmq::atomic_value_t" = type { %"struct.std::atomic" }
%"struct.std::atomic" = type { %"struct.std::__atomic_base" }
%"struct.std::__atomic_base" = type { i32 }
%"class.std::vector" = type { %"struct.std::_Vector_base" }
%"struct.std::_Vector_base" = type { %"struct.std::_Vector_base<zmq::tcp_address_mask_t, std::allocator<zmq::tcp_address_mask_t>>::_Vector_impl" }
%"struct.std::_Vector_base<zmq::tcp_address_mask_t, std::allocator<zmq::tcp_address_mask_t>>::_Vector_impl" = type { %"struct.std::_Vector_base<zmq::tcp_address_mask_t, std::allocator<zmq::tcp_address_mask_t>>::_Vector_impl_data" }
%"struct.std::_Vector_base<zmq::tcp_address_mask_t, std::allocator<zmq::tcp_address_mask_t>>::_Vector_impl_data" = type { ptr, ptr, ptr }
%"class.std::set" = type { %"class.std::_Rb_tree" }
%"class.std::_Rb_tree" = type { %"struct.std::_Rb_tree<unsigned int, unsigned int, std::_Identity<unsigned int>, std::less<unsigned int>>::_Rb_tree_impl" }
%"struct.std::_Rb_tree<unsigned int, unsigned int, std::_Identity<unsigned int>, std::less<unsigned int>>::_Rb_tree_impl" = type { [8 x i8], %"struct.std::_Rb_tree_header" }
%"struct.std::_Rb_tree_header" = type { %"struct.std::_Rb_tree_node_base", i64 }
%"struct.std::_Rb_tree_node_base" = type { i32, ptr, ptr, ptr }
%"class.std::set.6" = type { %"class.std::_Rb_tree.7" }
%"class.std::_Rb_tree.7" = type { %"struct.std::_Rb_tree<int, int, std::_Identity<int>, std::less<int>>::_Rb_tree_impl" }
%"struct.std::_Rb_tree<int, int, std::_Identity<int>, std::less<int>>::_Rb_tree_impl" = type { [8 x i8], %"struct.std::_Rb_tree_header" }
%"class.std::map" = type { %"class.std::_Rb_tree.12" }
%"class.std::_Rb_tree.12" = type { %"struct.std::_Rb_tree<std::__cxx11::basic_string<char>, std::pair<const std::__cxx11::basic_string<char>, std::__cxx11::basic_string<char>>, std::_Select1st<std::pair<const std::__cxx11::basic_string<char>, std::__cxx11::basic_string<char>>>, std::less<std::__cxx11::basic_string<char>>>::_Rb_tree_impl" }
%"struct.std::_Rb_tree<std::__cxx11::basic_string<char>, std::pair<const std::__cxx11::basic_string<char>, std::__cxx11::basic_string<char>>, std::_Select1st<std::pair<const std::__cxx11::basic_string<char>, std::__cxx11::basic_string<char>>>, std::less<std::__cxx11::basic_string<char>>>::_Rb_tree_impl" = type { [8 x i8], %"struct.std::_Rb_tree_header" }
%"class.std::vector.17" = type { %"struct.std::_Vector_base.18" }
%"struct.std::_Vector_base.18" = type { %"struct.std::_Vector_base<unsigned char, std::allocator<unsigned char>>::_Vector_impl" }
%"struct.std::_Vector_base<unsigned char, std::allocator<unsigned char>>::_Vector_impl" = type { %"struct.std::_Vector_base<unsigned char, std::allocator<unsigned char>>::_Vector_impl_data" }
%"struct.std::_Vector_base<unsigned char, std::allocator<unsigned char>>::_Vector_impl_data" = type { ptr, ptr, ptr }
%struct.sockaddr_in = type { i16, i16, %struct.in_addr, [8 x i8] }
%struct.in_addr = type { i32 }
%"struct.zmq::address_t" = type { %"class.std::__cxx11::basic_string", %"class.std::__cxx11::basic_string", ptr, %union.anon.22 }
%union.anon.22 = type { ptr }

@stderr = external global ptr, align 8
@.str = private unnamed_addr constant [30 x i8] c"Assertion failed: %s (%s:%d)\0A\00", align 1
@.str.2 = private unnamed_addr constant [110 x i8] c"generated/home/dtcxzyw/WorkSpace/Projects/compilers/llvm-opt-benchmark/bench/libzmq/libzmq/src/udp_engine.cpp\00", align 1
@.str.4 = private unnamed_addr constant [9 x i8] c"address_\00", align 1
@.str.5 = private unnamed_addr constant [15 x i8] c"send_ || recv_\00", align 1

; Function Attrs: mustprogress uwtable
define noundef i32 @_ZN3zmq12udp_engine_t4initEPNS_9address_tEbb(ptr noundef nonnull align 8 dereferenceable(17880) %0, ptr noundef %1, i1 noundef zeroext %2, i1 noundef zeroext %3) #0 align 2 {
  %5 = alloca i32, align 4
  %6 = alloca ptr, align 8
  %7 = alloca ptr, align 8
  %8 = alloca i8, align 1
  %9 = alloca i8, align 1
  store ptr %0, ptr %6, align 8, !tbaa !3
  store ptr %1, ptr %7, align 8, !tbaa !85
  %10 = zext i1 %2 to i8
  store i8 %10, ptr %8, align 1, !tbaa !86
  %11 = zext i1 %3 to i8
  store i8 %11, ptr %9, align 1, !tbaa !86
  %12 = load ptr, ptr %6, align 8
  br label %13

13:                                               ; preds = %4
  %14 = load ptr, ptr %7, align 8, !tbaa !85
  %15 = icmp ne ptr %14, null
  %16 = xor i1 %15, true
  %17 = zext i1 %16 to i64
  %18 = call i64 @llvm.expect.i64(i64 %17, i64 0)
  %19 = icmp ne i64 %18, 0
  br i1 %19, label %20, label %25

20:                                               ; preds = %13
  %21 = load ptr, ptr @stderr, align 8, !tbaa !81
  %22 = call i32 (ptr, ptr, ...) @fprintf(ptr noundef %21, ptr noundef @.str, ptr noundef @.str.4, ptr noundef @.str.2, i32 noundef 61) #21
  %23 = load ptr, ptr @stderr, align 8, !tbaa !81
  %24 = call i32 @fflush(ptr noundef %23)
  call void @_ZN3zmq9zmq_abortEPKc(ptr noundef @.str.4)
  br label %25

25:                                               ; preds = %20, %13
  br label %26

26:                                               ; preds = %25
  br label %27

27:                                               ; preds = %26
  %28 = load i8, ptr %8, align 1, !tbaa !86, !range !77, !noundef !78
  %29 = trunc i8 %28 to i1
  br i1 %29, label %33, label %30

30:                                               ; preds = %27
  %31 = load i8, ptr %9, align 1, !tbaa !86, !range !77, !noundef !78
  %32 = trunc i8 %31 to i1
  br label %33

33:                                               ; preds = %30, %27
  %34 = phi i1 [ true, %27 ], [ %32, %30 ]
  %35 = xor i1 %34, true
  %36 = zext i1 %35 to i64
  %37 = call i64 @llvm.expect.i64(i64 %36, i64 0)
  %38 = icmp ne i64 %37, 0
  br i1 %38, label %39, label %44

39:                                               ; preds = %33
  %40 = load ptr, ptr @stderr, align 8, !tbaa !81
  %41 = call i32 (ptr, ptr, ...) @fprintf(ptr noundef %40, ptr noundef @.str, ptr noundef @.str.5, ptr noundef @.str.2, i32 noundef 62) #21
  %42 = load ptr, ptr @stderr, align 8, !tbaa !81
  %43 = call i32 @fflush(ptr noundef %42)
  call void @_ZN3zmq9zmq_abortEPKc(ptr noundef @.str.5)
  br label %44

44:                                               ; preds = %39, %33
  br label %45

45:                                               ; preds = %44
  %46 = load i8, ptr %8, align 1, !tbaa !86, !range !77, !noundef !78
  %47 = trunc i8 %46 to i1
  %48 = getelementptr inbounds nuw %"class.zmq::udp_engine_t", ptr %12, i32 0, i32 15
  %49 = zext i1 %47 to i8
  store i8 %49, ptr %48, align 4, !tbaa !68
  %50 = load i8, ptr %9, align 1, !tbaa !86, !range !77, !noundef !78
  %51 = trunc i8 %50 to i1
  %52 = getelementptr inbounds nuw %"class.zmq::udp_engine_t", ptr %12, i32 0, i32 16
  %53 = zext i1 %51 to i8
  store i8 %53, ptr %52, align 1, !tbaa !69
  %54 = load ptr, ptr %7, align 8, !tbaa !85
  %55 = getelementptr inbounds nuw %"class.zmq::udp_engine_t", ptr %12, i32 0, i32 8
  store ptr %54, ptr %55, align 8, !tbaa !67
  %56 = getelementptr inbounds nuw %"class.zmq::udp_engine_t", ptr %12, i32 0, i32 8
  %57 = load ptr, ptr %56, align 8, !tbaa !67
  %58 = getelementptr inbounds nuw %"struct.zmq::address_t", ptr %57, i32 0, i32 3
  %59 = load ptr, ptr %58, align 8, !tbaa !87
  %60 = call noundef i32 @_ZNK3zmq13udp_address_t6familyEv(ptr noundef nonnull align 8 dereferenceable(104) %59)
  %61 = call noundef i32 @_ZN3zmq11open_socketEiii(i32 noundef %60, i32 noundef 2, i32 noundef 17)
  %62 = getelementptr inbounds nuw %"class.zmq::udp_engine_t", ptr %12, i32 0, i32 5
  store i32 %61, ptr %62, align 4, !tbaa !64
  %63 = getelementptr inbounds nuw %"class.zmq::udp_engine_t", ptr %12, i32 0, i32 5
  %64 = load i32, ptr %63, align 4, !tbaa !64
  %65 = icmp eq i32 %64, -1
  br i1 %65, label %66, label %67

66:                                               ; preds = %45
  store i32 -1, ptr %5, align 4
  br label %70

67:                                               ; preds = %45
  %68 = getelementptr inbounds nuw %"class.zmq::udp_engine_t", ptr %12, i32 0, i32 5
  %69 = load i32, ptr %68, align 4, !tbaa !64
  call void @_ZN3zmq14unblock_socketEi(i32 noundef %69)
  store i32 0, ptr %5, align 4
  br label %70

70:                                               ; preds = %67, %66
  %71 = load i32, ptr %5, align 4
  ret i32 %71
}