; Function Attrs: mustprogress uwtable
define noundef range(i32 -1, 1) i32 @_ZN3zmq12udp_engine_t4initEPNS_9address_tEbb(ptr noundef nonnull writeonly align 8 captures(none) dereferenceable(17880) initializes((100, 104), (120, 128), (17876, 17878)) %0, ptr noundef %1, i1 noundef zeroext %2, i1 noundef zeroext %3) local_unnamed_addr #0 align 2 {
  %5 = zext i1 %2 to i8
  %6 = zext i1 %3 to i8
  %.not = icmp eq ptr %1, null
  br i1 %.not, label %7, label %12, !prof !72

7:                                                ; preds = %4
  %8 = load ptr, ptr @stderr, align 8, !tbaa !105
  %9 = tail call i32 (ptr, ptr, ...) @fprintf(ptr noundef %8, ptr noundef nonnull @.str, ptr noundef nonnull @.str.4, ptr noundef nonnull @.str.2, i32 noundef 61) #27
  %10 = load ptr, ptr @stderr, align 8, !tbaa !105
  %11 = tail call i32 @fflush(ptr noundef %10)
  tail call void @_ZN3zmq9zmq_abortEPKc(ptr noundef nonnull @.str.4)
  br label %12

12:                                               ; preds = %7, %4
  %13 = or i1 %2, %3
  br i1 %13, label %19, label %14, !prof !107

14:                                               ; preds = %12
  %15 = load ptr, ptr @stderr, align 8, !tbaa !105
  %16 = tail call i32 (ptr, ptr, ...) @fprintf(ptr noundef %15, ptr noundef nonnull @.str, ptr noundef nonnull @.str.5, ptr noundef nonnull @.str.2, i32 noundef 62) #27
  %17 = load ptr, ptr @stderr, align 8, !tbaa !105
  %18 = tail call i32 @fflush(ptr noundef %17)
  tail call void @_ZN3zmq9zmq_abortEPKc(ptr noundef nonnull @.str.5)
  br label %19

19:                                               ; preds = %12, %14
  %20 = getelementptr inbounds nuw i8, ptr %0, i64 17876
  store i8 %5, ptr %20, align 4, !tbaa !65
  %21 = getelementptr inbounds nuw i8, ptr %0, i64 17877
  store i8 %6, ptr %21, align 1, !tbaa !66
  %22 = getelementptr inbounds nuw i8, ptr %0, i64 120
  store ptr %1, ptr %22, align 8, !tbaa !108
  %23 = getelementptr inbounds nuw i8, ptr %1, i64 72
  %24 = load ptr, ptr %23, align 8, !tbaa !14
  %25 = tail call noundef i32 @_ZNK3zmq13udp_address_t6familyEv(ptr noundef nonnull align 8 dereferenceable(104) %24)
  %26 = tail call noundef i32 @_ZN3zmq11open_socketEiii(i32 noundef %25, i32 noundef 2, i32 noundef 17)
  %27 = getelementptr inbounds nuw i8, ptr %0, i64 100
  store i32 %26, ptr %27, align 4, !tbaa !64
  %28 = icmp eq i32 %26, -1
  br i1 %28, label %30, label %29

29:                                               ; preds = %19
  tail call void @_ZN3zmq14unblock_socketEi(i32 noundef %26)
  br label %30

30:                                               ; preds = %19, %29
  %.0 = phi i32 [ 0, %29 ], [ -1, %19 ]
  ret i32 %.0
}